
start.elf：     文件格式 elf32-littleriscv


Disassembly of section .text:

00000000 <_start>:
   0:	90000537          	lui	a0,0x90000
   4:	00050513          	mv	a0,a0
   8:	06800293          	li	t0,104
   c:	00550023          	sb	t0,0(a0) # 90000000 <_GLOBAL_OFFSET_TABLE_+0x8ffffe28>
  10:	06500293          	li	t0,101
  14:	005500a3          	sb	t0,1(a0)
  18:	06c00293          	li	t0,108
  1c:	00550123          	sb	t0,2(a0)
  20:	06c00293          	li	t0,108
  24:	005501a3          	sb	t0,3(a0)
  28:	06f00293          	li	t0,111
  2c:	00550223          	sb	t0,4(a0)
  30:	02c00293          	li	t0,44
  34:	005502a3          	sb	t0,5(a0)
  38:	07700293          	li	t0,119
  3c:	00550323          	sb	t0,6(a0)
  40:	06f00293          	li	t0,111
  44:	005503a3          	sb	t0,7(a0)
  48:	07200293          	li	t0,114
  4c:	00550423          	sb	t0,8(a0)
  50:	06c00293          	li	t0,108
  54:	005504a3          	sb	t0,9(a0)
  58:	06400293          	li	t0,100
  5c:	00550523          	sb	t0,10(a0)
  60:	02100293          	li	t0,33
  64:	005505a3          	sb	t0,11(a0)
  68:	00000293          	li	t0,0
  6c:	00550623          	sb	t0,12(a0)
  70:	90000537          	lui	a0,0x90000
  74:	00050513          	mv	a0,a0
  78:	900005b7          	lui	a1,0x90000
  7c:	01458593          	addi	a1,a1,20 # 90000014 <_GLOBAL_OFFSET_TABLE_+0x8ffffe3c>
  80:	00d00313          	li	t1,13

00000084 <byte_loop>:
  84:	00054283          	lbu	t0,0(a0) # 90000000 <_GLOBAL_OFFSET_TABLE_+0x8ffffe28>
  88:	00558023          	sb	t0,0(a1)
  8c:	00150513          	addi	a0,a0,1
  90:	00158593          	addi	a1,a1,1
  94:	fff30313          	addi	t1,t1,-1
  98:	fe0316e3          	bnez	t1,84 <byte_loop>
  9c:	90000537          	lui	a0,0x90000
  a0:	00050513          	mv	a0,a0
  a4:	900005b7          	lui	a1,0x90000
  a8:	02858593          	addi	a1,a1,40 # 90000028 <_GLOBAL_OFFSET_TABLE_+0x8ffffe50>
  ac:	00c00313          	li	t1,12

000000b0 <half_loop>:
  b0:	00051283          	lh	t0,0(a0) # 90000000 <_GLOBAL_OFFSET_TABLE_+0x8ffffe28>
  b4:	00559023          	sh	t0,0(a1)
  b8:	00250513          	addi	a0,a0,2
  bc:	00258593          	addi	a1,a1,2
  c0:	ffe30313          	addi	t1,t1,-2
  c4:	fe0316e3          	bnez	t1,b0 <half_loop>
  c8:	90000537          	lui	a0,0x90000
  cc:	00050513          	mv	a0,a0
  d0:	900005b7          	lui	a1,0x90000
  d4:	03c58593          	addi	a1,a1,60 # 9000003c <_GLOBAL_OFFSET_TABLE_+0x8ffffe64>
  d8:	00c00313          	li	t1,12

000000dc <word_loop>:
  dc:	00052283          	lw	t0,0(a0) # 90000000 <_GLOBAL_OFFSET_TABLE_+0x8ffffe28>
  e0:	0055a023          	sw	t0,0(a1)
  e4:	00450513          	addi	a0,a0,4
  e8:	00458593          	addi	a1,a1,4
  ec:	ffc30313          	addi	t1,t1,-4
  f0:	fe0316e3          	bnez	t1,dc <word_loop>

000000f4 <done>:
  f4:	0000006f          	j	f4 <done>
